; Function Attrs: nounwind uwtable
define ptr @l_IO_FS_Stream_writeResponse___rarg(ptr noundef %0, ptr noundef %1, ptr noundef %2, ptr noundef %3) #0 {
  %.val = load i32, ptr %2, align 4, !tbaa !10
  %5 = icmp eq i32 %.val, 1
  br i1 %5, label %6, label %14

6:                                                ; preds = %4
  %7 = getelementptr inbounds nuw i8, ptr %2, i64 16
  %8 = load ptr, ptr %7, align 8, !tbaa !4
  %9 = tail call ptr @lean_apply_1(ptr noundef %0, ptr noundef %8) #7
  %10 = getelementptr inbounds nuw i8, ptr %2, i64 4
  %11 = load i32, ptr %10, align 4
  %12 = and i32 %11, 16777215
  %13 = or disjoint i32 %12, 33554432
  store i32 %13, ptr %10, align 4
  store ptr %9, ptr %7, align 8, !tbaa !4
  br label %51

14:                                               ; preds = %4
  %15 = getelementptr inbounds nuw i8, ptr %2, i64 8
  %16 = load ptr, ptr %15, align 8, !tbaa !4
  %17 = getelementptr inbounds nuw i8, ptr %2, i64 16
  %18 = load ptr, ptr %17, align 8, !tbaa !4
  %19 = ptrtoint ptr %18 to i64
  %20 = and i64 %19, 1
  %.not = icmp eq i64 %20, 0
  br i1 %.not, label %21, label %lean_inc.exit27

21:                                               ; preds = %14
  %.val.i = load i32, ptr %18, align 4, !tbaa !10
  %22 = icmp sgt i32 %.val.i, 0
  br i1 %22, label %23, label %25, !prof !13

23:                                               ; preds = %21
  %24 = add nuw i32 %.val.i, 1
  store i32 %24, ptr %18, align 4, !tbaa !10
  br label %lean_inc.exit27

25:                                               ; preds = %21
  %.not.i28 = icmp eq i32 %.val.i, 0
  br i1 %.not.i28, label %lean_inc.exit27, label %26

26:                                               ; preds = %25
  tail call void @lean_inc_ref_cold(ptr noundef nonnull %18) #7
  br label %lean_inc.exit27

lean_inc.exit27:                                  ; preds = %26, %25, %23, %14
  %27 = ptrtoint ptr %16 to i64
  %28 = and i64 %27, 1
  %.not32 = icmp eq i64 %28, 0
  br i1 %.not32, label %29, label %lean_inc.exit

29:                                               ; preds = %lean_inc.exit27
  %.val.i29 = load i32, ptr %16, align 4, !tbaa !10
  %30 = icmp sgt i32 %.val.i29, 0
  br i1 %30, label %31, label %33, !prof !13

31:                                               ; preds = %29
  %32 = add nuw i32 %.val.i29, 1
  store i32 %32, ptr %16, align 4, !tbaa !10
  br label %lean_inc.exit

33:                                               ; preds = %29
  %.not.i30 = icmp eq i32 %.val.i29, 0
  br i1 %.not.i30, label %lean_inc.exit, label %34

34:                                               ; preds = %33
  tail call void @lean_inc_ref_cold(ptr noundef nonnull %16) #7
  br label %lean_inc.exit

lean_inc.exit:                                    ; preds = %34, %33, %31, %lean_inc.exit27
  %35 = ptrtoint ptr %2 to i64
  %36 = and i64 %35, 1
  %.not33 = icmp eq i64 %36, 0
  br i1 %.not33, label %37, label %lean_dec.exit

37:                                               ; preds = %lean_inc.exit
  %38 = load i32, ptr %2, align 4, !tbaa !10
  %39 = icmp sgt i32 %38, 1
  br i1 %39, label %40, label %42, !prof !13

40:                                               ; preds = %37
  %41 = add nsw i32 %38, -1
  store i32 %41, ptr %2, align 4, !tbaa !10
  br label %lean_dec.exit

42:                                               ; preds = %37
  %.not.i = icmp eq i32 %38, 0
  br i1 %.not.i, label %lean_dec.exit, label %43

43:                                               ; preds = %42
  tail call void @lean_dec_ref_cold(ptr noundef nonnull %2) #7
  br label %lean_dec.exit

lean_dec.exit:                                    ; preds = %43, %42, %40, %lean_inc.exit
  %44 = tail call ptr @lean_apply_1(ptr noundef %0, ptr noundef %18) #7
  tail call void @lean_inc_heartbeat() #7
  %45 = tail call noalias ptr @mi_malloc_small(i64 noundef 24) #7
  %46 = icmp eq ptr %45, null
  br i1 %46, label %47, label %lean_alloc_ctor.exit

47:                                               ; preds = %lean_dec.exit
  tail call void @lean_internal_panic_out_of_memory() #8
  unreachable

lean_alloc_ctor.exit:                             ; preds = %lean_dec.exit
  %48 = getelementptr inbounds nuw i8, ptr %45, i64 4
  store i32 1, ptr %45, align 4, !tbaa !10
  store i32 33685528, ptr %48, align 4
  %49 = getelementptr inbounds nuw i8, ptr %45, i64 8
  store ptr %16, ptr %49, align 8, !tbaa !4
  %50 = getelementptr inbounds nuw i8, ptr %45, i64 16
  store ptr %44, ptr %50, align 8, !tbaa !4
  br label %51

51:                                               ; preds = %lean_alloc_ctor.exit, %6
  %.sink = phi ptr [ %45, %lean_alloc_ctor.exit ], [ %2, %6 ]
  %52 = tail call ptr @l_IO_FS_Stream_writeMessage(ptr noundef %1, ptr noundef nonnull %.sink, ptr noundef %3)
  ret ptr %52
}